; Function Attrs: mustprogress uwtable
define internal noundef i32 @_ZL8b_lshiftP9lua_State(ptr noundef %0) #0 {
  %2 = tail call noundef i32 @_Z18luaL_checkunsignedP9lua_Statei(ptr noundef %0, i32 noundef 1)
  %3 = tail call noundef i32 @_Z17luaL_checkintegerP9lua_Statei(ptr noundef %0, i32 noundef 2)
  %4 = icmp slt i32 %3, 0
  br i1 %4, label %5, label %10

5:                                                ; preds = %1
  %6 = icmp samesign ult i32 %3, -31
  br i1 %6, label %_ZL7b_shiftP9lua_Stateji.exit, label %7

7:                                                ; preds = %5
  %8 = sub nsw i32 0, %3
  %9 = lshr i32 %2, %8
  br label %_ZL7b_shiftP9lua_Stateji.exit

10:                                               ; preds = %1
  %11 = icmp samesign ugt i32 %3, 31
  %12 = shl i32 %2, %3
  %.1.i = select i1 %11, i32 0, i32 %12
  br label %_ZL7b_shiftP9lua_Stateji.exit

_ZL7b_shiftP9lua_Stateji.exit:                    ; preds = %5, %7, %10
  %.0.i = phi i32 [ %9, %7 ], [ %.1.i, %10 ], [ 0, %5 ]
  tail call void @_Z16lua_pushunsignedP9lua_Statej(ptr noundef %0, i32 noundef %.0.i)
  ret i32 1
}